; Function Attrs: mustprogress nounwind uwtable
define dso_local void @_ZN5clang16CompilerInstance12setAuxTargetEPNS_10TargetInfoE(ptr noundef nonnull align 8 captures(none) dereferenceable(352) %0, ptr noundef %1) local_unnamed_addr #0 align 2 {
  %.not.i.i = icmp eq ptr %1, null
  br i1 %.not.i.i, label %_ZN4llvm18IntrusiveRefCntPtrIN5clang10TargetInfoEEC2EPS2_.exit, label %3

3:                                                ; preds = %2
  %4 = getelementptr inbounds nuw i8, ptr %1, i64 196
  %5 = load i32, ptr %4, align 4
  %6 = add i32 %5, 1
  store i32 %6, ptr %4, align 4
  br label %_ZN4llvm18IntrusiveRefCntPtrIN5clang10TargetInfoEEC2EPS2_.exit

_ZN4llvm18IntrusiveRefCntPtrIN5clang10TargetInfoEEC2EPS2_.exit: ; preds = %2, %3
  %7 = getelementptr inbounds nuw i8, ptr %0, i64 48
  %8 = load ptr, ptr %7, align 8
  store ptr %1, ptr %7, align 8
  %.not.i.i2 = icmp eq ptr %8, null
  br i1 %.not.i.i2, label %_ZN4llvm18IntrusiveRefCntPtrIN5clang10TargetInfoEED2Ev.exit, label %9

9:                                                ; preds = %_ZN4llvm18IntrusiveRefCntPtrIN5clang10TargetInfoEEC2EPS2_.exit
  %10 = getelementptr inbounds nuw i8, ptr %8, i64 196
  %11 = load i32, ptr %10, align 4
  %12 = add i32 %11, -1
  store i32 %12, ptr %10, align 4
  %13 = icmp eq i32 %12, 0
  br i1 %13, label %14, label %_ZN4llvm18IntrusiveRefCntPtrIN5clang10TargetInfoEED2Ev.exit

14:                                               ; preds = %9
  %15 = load ptr, ptr %8, align 8
  %16 = getelementptr inbounds nuw i8, ptr %15, i64 8
  %17 = load ptr, ptr %16, align 8
  tail call void %17(ptr noundef nonnull align 8 dereferenceable(489) %8) #24
  br label %_ZN4llvm18IntrusiveRefCntPtrIN5clang10TargetInfoEED2Ev.exit

_ZN4llvm18IntrusiveRefCntPtrIN5clang10TargetInfoEED2Ev.exit: ; preds = %_ZN4llvm18IntrusiveRefCntPtrIN5clang10TargetInfoEEC2EPS2_.exit, %9, %14
  ret void
}